MPASM 5.72  /USERS/SUPEROO7/FILES/PROGRAMMIN   4-26-2017  19:43:02         PAGE  1


LOC  OBJECT CODE     LINE SOURCE TEXT
  VALUE

                      00001 #include "p16F84A.inc"
                      00001         LIST
                      00002 
                      00003 ;==========================================================================
                      00004 ; Build date : Jan 30 2017
                      00005 ;  MPASM PIC16F84A processor include
                      00006 ; 
                      00007 ;  (c) Copyright 1999-2017 Microchip Technology, All rights reserved
                      00008 ;==========================================================================
                      00009 
                      00209         LIST
                      00002 ; CONFIG
                      00003 ; __config 0xFFF9
Warning[205]: Found directive in column 1. (__CONFIG)
2007   3FF9           00004 __CONFIG _FOSC_XT & _WDTE_OFF & _PWRTE_OFF & _CP_OFF
                      00005 
                      00006 RES_VECT CODE 0x0000 ; processor reset vector
                      00007 
Warning[203]: Found opcode in column 1. (GOTO)
0000   2???           00008 GOTO START ; go to beginning of program
  00000020            00009 CTR_01 EQU 0x20
  00000021            00010 CTR_02 EQU 0x21
  00000022            00011 CTR_03 EQU 0x22
  00000023            00012 COUNT EQU 0x23
                      00013 ; TODO ADD INTERRUPTS HERE IF USED
                      00014 MAIN_PROG CODE ; let linker place main program
0000                  00015 START
Warning[203]: Found opcode in column 1. (BCF)
0000   1283           00016 BCF STATUS, RP0 ; Select Bank 0 (PORT B)
Warning[203]: Found opcode in column 1. (CLRF)
0001   0186           00017 CLRF PORTB ; Initialize PORT B by
                      00018 ; clearing output
                      00019 ; data latches
Warning[203]: Found opcode in column 1. (BSF)
0002   1683           00020 BSF STATUS, RP0 ; Select Bank 1 (TRIS B)
Warning[203]: Found opcode in column 1. (MOVLW)
0003   3000           00021 MOVLW 0x0 ; Value used to
                      00022 ; initialize data direction
Warning[203]: Found opcode in column 1. (MOVWF)
Message[302]: Register in operand not in bank 0.  Ensure that bank bits are correct.
0004   0086           00023 MOVWF TRISB ; Set RB<7:0> as outputs
Warning[203]: Found opcode in column 1. (BSF)
Message[302]: Register in operand not in bank 0.  Ensure that bank bits are correct.
0005   1505           00024 BSF TRISA,2 ; Set RA2 as input
Warning[203]: Found opcode in column 1. (BCF)
0006   1283           00025 BCF STATUS, RP0 ; Select Bank 0 (PORT B)
0007                  00026 again
Warning[203]: Found opcode in column 1. (MOVLW)
0007   30F6           00027 MOVLW D'246'
Warning[203]: Found opcode in column 1. (MOVWF)
0008   00A2           00028 MOVWF CTR_03
Warning[203]: Found opcode in column 1. (CLRF)
0009   01A3           00029 CLRF COUNT
MPASM 5.72  /USERS/SUPEROO7/FILES/PROGRAMMIN   4-26-2017  19:43:02         PAGE  2


LOC  OBJECT CODE     LINE SOURCE TEXT
  VALUE

000A                  00030 loop
Warning[204]: Found pseudo-op in column 1. (MOVFW)
000A   0823           00031 MOVFW COUNT
Warning[203]: Found opcode in column 1. (MOVWF)
000B   0086           00032 MOVWF PORTB
Warning[203]: Found opcode in column 1. (CALL)
000C   2???           00033 CALL Delay
Warning[203]: Found opcode in column 1. (CALL)
000D   2???           00034 CALL Delay
Warning[203]: Found opcode in column 1. (CALL)
000E   2???           00035 CALL Delay
Warning[203]: Found opcode in column 1. (CALL)
000F   2???           00036 CALL Delay
Warning[203]: Found opcode in column 1. (CALL)
0010   2???           00037 CALL RA2_CHK
Warning[203]: Found opcode in column 1. (INCF)
0011   0AA3           00038 INCF COUNT,F
Warning[203]: Found opcode in column 1. (INCFSZ)
Message[305]: Using default destination of 1 (file).
0012   0FA2           00039 INCFSZ CTR_03
Warning[203]: Found opcode in column 1. (GOTO)
0013   2???           00040 GOTO loop
Warning[203]: Found opcode in column 1. (GOTO)
0014   2???           00041 GOTO again
0015                  00042 Delay
Warning[203]: Found opcode in column 1. (MOVLW)
0015   30FF           00043 MOVLW 0xFF
Warning[203]: Found opcode in column 1. (MOVWF)
0016   00A0           00044 MOVWF CTR_01
0017                  00045 L1
Warning[203]: Found opcode in column 1. (MOVLW)
0017   30FF           00046 MOVLW 0xFF
Warning[203]: Found opcode in column 1. (MOVWF)
0018   00A1           00047 MOVWF CTR_02
0019                  00048 L2
Warning[203]: Found opcode in column 1. (DECFSZ)
0019   0BA1           00049 DECFSZ CTR_02,F
Warning[203]: Found opcode in column 1. (GOTO)
001A   2???           00050 GOTO L2
Warning[203]: Found opcode in column 1. (DECFSZ)
001B   0BA0           00051 DECFSZ CTR_01,F
Warning[203]: Found opcode in column 1. (GOTO)
001C   2???           00052 GOTO L1
Warning[203]: Found opcode in column 1. (RETURN)
001D   0008           00053 RETURN
001E                  00054 RA2_CHK
001E                  00055 CHK_PUSH
Warning[204]: Found pseudo-op in column 1. (MOVFW)
001E   0805           00056 MOVFW PORTA
Warning[203]: Found opcode in column 1. (ANDLW)
001F   3904           00057 ANDLW B'00000100'
Warning[203]: Found opcode in column 1. (BTFSS)
0020   1D03           00058 BTFSS STATUS, Z
MPASM 5.72  /USERS/SUPEROO7/FILES/PROGRAMMIN   4-26-2017  19:43:02         PAGE  3


LOC  OBJECT CODE     LINE SOURCE TEXT
  VALUE

Warning[203]: Found opcode in column 1. (GOTO)
0021   2???           00059 GOTO CHK_PUSH ; if push button is not pressed
Warning[203]: Found opcode in column 1. (CALL)
0022   2???           00060 CALL Delay ; wait until the bouncing
Warning[203]: Found opcode in column 1. (CALL)
0023   2???           00061 CALL Delay ; of the push button finishes
Warning[204]: Found pseudo-op in column 1. (MOVFW)
0024   0805           00062 MOVFW PORTA ; check RA2 again
Warning[203]: Found opcode in column 1. (ANDLW)
0025   3904           00063 ANDLW B'00000100'
Warning[203]: Found opcode in column 1. (BTFSS)
0026   1D03           00064 BTFSS STATUS,Z
Warning[203]: Found opcode in column 1. (GOTO)
0027   2???           00065 GOTO CHK_PUSH
Warning[203]: Found opcode in column 1. (RETURN)
0028   0008           00066 RETURN
Warning[205]: Found directive in column 1. (END)
3FF9                  00067 END
MPASM 5.72  /USERS/SUPEROO7/FILES/PROGRAMMIN   4-26-2017  19:43:02         PAGE  4


SYMBOL TABLE
  LABEL                             VALUE 

C                                 00000000
CHK_PUSH                          0000001E
COUNT                             00000023
CTR_01                            00000020
CTR_02                            00000021
CTR_03                            00000022
DC                                00000001
Delay                             00000015
EEADR                             00000009
EECON1                            00000088
EECON2                            00000089
EEDATA                            00000008
EEIE                              00000006
EEIF                              00000004
F                                 00000001
FSR                               00000004
GIE                               00000007
INDF                              00000000
INTCON                            0000000B
INTE                              00000004
INTEDG                            00000006
INTF                              00000001
IRP                               00000007
L1                                00000017
L2                                00000019
NOT_PD                            00000003
NOT_RBPU                          00000007
NOT_TO                            00000004
OPTION_REG                        00000081
PCL                               00000002
PCLATH                            0000000A
PORTA                             00000005
PORTB                             00000006
PS0                               00000000
PS1                               00000001
PS2                               00000002
PSA                               00000003
RA0                               00000000
RA1                               00000001
RA2                               00000002
RA2_CHK                           0000001E
RA3                               00000003
RA4                               00000004
RB0                               00000000
RB1                               00000001
RB2                               00000002
RB3                               00000003
RB4                               00000004
RB5                               00000005
RB6                               00000006
RB7                               00000007
RBIE                              00000003
RBIF                              00000000
MPASM 5.72  /USERS/SUPEROO7/FILES/PROGRAMMIN   4-26-2017  19:43:02         PAGE  5


SYMBOL TABLE
  LABEL                             VALUE 

RD                                00000000
RP0                               00000005
RP1                               00000006
START                             00000000
STATUS                            00000003
T0CS                              00000005
T0IE                              00000005
T0IF                              00000002
T0SE                              00000004
TMR0                              00000001
TMR0IE                            00000005
TMR0IF                            00000002
TRISA                             00000085
TRISA0                            00000000
TRISA1                            00000001
TRISA2                            00000002
TRISA3                            00000003
TRISA4                            00000004
TRISB                             00000086
TRISB0                            00000000
TRISB1                            00000001
TRISB2                            00000002
TRISB3                            00000003
TRISB4                            00000004
TRISB5                            00000005
TRISB6                            00000006
TRISB7                            00000007
W                                 00000000
WR                                00000001
WREN                              00000002
WRERR                             00000003
Z                                 00000002
_CONFIG                           00002007
_CP_OFF                           00003FFF
_CP_ON                            0000000F
_DEVID1                           00002006
_FOSC_EXTRC                       00003FFF
_FOSC_HS                          00003FFE
_FOSC_LP                          00003FFC
_FOSC_XT                          00003FFD
_HS_OSC                           00003FFE
_IDLOC0                           00002000
_IDLOC1                           00002001
_IDLOC2                           00002002
_IDLOC3                           00002003
_LP_OSC                           00003FFC
_PWRTE_OFF                        00003FFF
_PWRTE_ON                         00003FF7
_RC_OSC                           00003FFF
_WDTE_OFF                         00003FFB
_WDTE_ON                          00003FFF
_WDT_OFF                          00003FFB
_WDT_ON                           00003FFF
MPASM 5.72  /USERS/SUPEROO7/FILES/PROGRAMMIN   4-26-2017  19:43:02         PAGE  6


SYMBOL TABLE
  LABEL                             VALUE 

_XT_OSC                           00003FFD
__16F84A                          00000001
again                             00000007
loop                              0000000A

Errors   :     0
Warnings :    44 reported,     0 suppressed
Messages :     3 reported,     0 suppressed

